; ModuleID = '17/222.c'
source_filename = "17/222.c"
target datalayout = "e-m:e-p270:32:32-p271:32:32-p272:64:64-i64:64-f80:128-n8:16:32:64-S128"
target triple = "x86_64-pc-linux-gnu"

@.str = private unnamed_addr constant [4 x i8] c"%s\0A\00", align 1
@.str.1 = private unnamed_addr constant [2 x i8] c"$\00", align 1
@.str.2 = private unnamed_addr constant [2 x i8] c"?\00", align 1
@.str.3 = private unnamed_addr constant [2 x i8] c" \00", align 1
@.str.4 = private unnamed_addr constant [2 x i8] c"\0A\00", align 1

; Function Attrs: noinline nounwind uwtable
define dso_local i32 @main() #0 {
  %1 = alloca i32, align 4
  %2 = alloca [200 x i32], align 16
  %3 = alloca i32, align 4
  %4 = alloca i32, align 4
  %5 = alloca [200 x i8], align 16
  store i32 0, i32* %1, align 4
  br label %6

6:                                                ; preds = %130, %0
  %7 = getelementptr inbounds [200 x i8], [200 x i8]* %5, i64 0, i64 0
  %8 = call i32 (i8*, ...) bitcast (i32 (...)* @gets to i32 (i8*, ...)*)(i8* %7)
  %9 = icmp ne i32 %8, 0
  br i1 %9, label %10, label %132

10:                                               ; preds = %6
  %11 = getelementptr inbounds [200 x i32], [200 x i32]* %2, i64 0, i64 0
  %12 = bitcast i32* %11 to i8*
  call void @llvm.memset.p0i8.i64(i8* align 16 %12, i8 0, i64 800, i1 false)
  store i32 0, i32* %3, align 4
  br label %13

13:                                               ; preds = %76, %10
  %14 = load i32, i32* %3, align 4
  %15 = icmp slt i32 %14, 200
  br i1 %15, label %16, label %79

16:                                               ; preds = %13
  %17 = load i32, i32* %3, align 4
  %18 = sext i32 %17 to i64
  %19 = getelementptr inbounds [200 x i8], [200 x i8]* %5, i64 0, i64 %18
  %20 = load i8, i8* %19, align 1
  %21 = sext i8 %20 to i32
  %22 = icmp eq i32 %21, 0
  br i1 %22, label %23, label %24

23:                                               ; preds = %16
  br label %79

24:                                               ; preds = %16
  %25 = load i32, i32* %3, align 4
  %26 = sext i32 %25 to i64
  %27 = getelementptr inbounds [200 x i8], [200 x i8]* %5, i64 0, i64 %26
  %28 = load i8, i8* %27, align 1
  %29 = sext i8 %28 to i32
  %30 = icmp eq i32 %29, 40
  br i1 %30, label %31, label %35

31:                                               ; preds = %24
  %32 = load i32, i32* %3, align 4
  %33 = sext i32 %32 to i64
  %34 = getelementptr inbounds [200 x i32], [200 x i32]* %2, i64 0, i64 %33
  store i32 1, i32* %34, align 4
  br label %35

35:                                               ; preds = %31, %24
  %36 = load i32, i32* %3, align 4
  %37 = sext i32 %36 to i64
  %38 = getelementptr inbounds [200 x i8], [200 x i8]* %5, i64 0, i64 %37
  %39 = load i8, i8* %38, align 1
  %40 = sext i8 %39 to i32
  %41 = icmp eq i32 %40, 41
  br i1 %41, label %42, label %75

42:                                               ; preds = %35
  %43 = load i32, i32* %3, align 4
  %44 = sext i32 %43 to i64
  %45 = getelementptr inbounds [200 x i32], [200 x i32]* %2, i64 0, i64 %44
  store i32 1, i32* %45, align 4
  %46 = load i32, i32* %3, align 4
  store i32 %46, i32* %4, align 4
  br label %47

47:                                               ; preds = %71, %42
  %48 = load i32, i32* %4, align 4
  %49 = icmp sge i32 %48, 0
  br i1 %49, label %50, label %74

50:                                               ; preds = %47
  %51 = load i32, i32* %4, align 4
  %52 = sext i32 %51 to i64
  %53 = getelementptr inbounds [200 x i8], [200 x i8]* %5, i64 0, i64 %52
  %54 = load i8, i8* %53, align 1
  %55 = sext i8 %54 to i32
  %56 = icmp eq i32 %55, 40
  br i1 %56, label %57, label %70

57:                                               ; preds = %50
  %58 = load i32, i32* %4, align 4
  %59 = sext i32 %58 to i64
  %60 = getelementptr inbounds [200 x i32], [200 x i32]* %2, i64 0, i64 %59
  %61 = load i32, i32* %60, align 4
  %62 = icmp eq i32 %61, 1
  br i1 %62, label %63, label %70

63:                                               ; preds = %57
  %64 = load i32, i32* %3, align 4
  %65 = sext i32 %64 to i64
  %66 = getelementptr inbounds [200 x i32], [200 x i32]* %2, i64 0, i64 %65
  store i32 0, i32* %66, align 4
  %67 = load i32, i32* %4, align 4
  %68 = sext i32 %67 to i64
  %69 = getelementptr inbounds [200 x i32], [200 x i32]* %2, i64 0, i64 %68
  store i32 0, i32* %69, align 4
  br label %74

70:                                               ; preds = %57, %50
  br label %71

71:                                               ; preds = %70
  %72 = load i32, i32* %4, align 4
  %73 = add nsw i32 %72, -1
  store i32 %73, i32* %4, align 4
  br label %47

74:                                               ; preds = %63, %47
  br label %75

75:                                               ; preds = %74, %35
  br label %76

76:                                               ; preds = %75
  %77 = load i32, i32* %3, align 4
  %78 = add nsw i32 %77, 1
  store i32 %78, i32* %3, align 4
  br label %13

79:                                               ; preds = %23, %13
  %80 = getelementptr inbounds [200 x i8], [200 x i8]* %5, i64 0, i64 0
  %81 = call i32 (i8*, ...) @printf(i8* getelementptr inbounds ([4 x i8], [4 x i8]* @.str, i64 0, i64 0), i8* %80)
  store i32 0, i32* %3, align 4
  br label %82

82:                                               ; preds = %127, %79
  %83 = load i32, i32* %3, align 4
  %84 = icmp slt i32 %83, 200
  br i1 %84, label %85, label %130

85:                                               ; preds = %82
  %86 = load i32, i32* %3, align 4
  %87 = sext i32 %86 to i64
  %88 = getelementptr inbounds [200 x i8], [200 x i8]* %5, i64 0, i64 %87
  %89 = load i8, i8* %88, align 1
  %90 = sext i8 %89 to i32
  %91 = icmp eq i32 %90, 0
  br i1 %91, label %92, label %93

92:                                               ; preds = %85
  br label %130

93:                                               ; preds = %85
  %94 = load i32, i32* %3, align 4
  %95 = sext i32 %94 to i64
  %96 = getelementptr inbounds [200 x i8], [200 x i8]* %5, i64 0, i64 %95
  %97 = load i8, i8* %96, align 1
  %98 = sext i8 %97 to i32
  %99 = icmp eq i32 %98, 40
  br i1 %99, label %100, label %108

100:                                              ; preds = %93
  %101 = load i32, i32* %3, align 4
  %102 = sext i32 %101 to i64
  %103 = getelementptr inbounds [200 x i32], [200 x i32]* %2, i64 0, i64 %102
  %104 = load i32, i32* %103, align 4
  %105 = icmp eq i32 %104, 1
  br i1 %105, label %106, label %108

106:                                              ; preds = %100
  %107 = call i32 (i8*, ...) @printf(i8* getelementptr inbounds ([2 x i8], [2 x i8]* @.str.1, i64 0, i64 0))
  br label %126

108:                                              ; preds = %100, %93
  %109 = load i32, i32* %3, align 4
  %110 = sext i32 %109 to i64
  %111 = getelementptr inbounds [200 x i8], [200 x i8]* %5, i64 0, i64 %110
  %112 = load i8, i8* %111, align 1
  %113 = sext i8 %112 to i32
  %114 = icmp eq i32 %113, 41
  br i1 %114, label %115, label %123

115:                                              ; preds = %108
  %116 = load i32, i32* %3, align 4
  %117 = sext i32 %116 to i64
  %118 = getelementptr inbounds [200 x i32], [200 x i32]* %2, i64 0, i64 %117
  %119 = load i32, i32* %118, align 4
  %120 = icmp eq i32 %119, 1
  br i1 %120, label %121, label %123

121:                                              ; preds = %115
  %122 = call i32 (i8*, ...) @printf(i8* getelementptr inbounds ([2 x i8], [2 x i8]* @.str.2, i64 0, i64 0))
  br label %125

123:                                              ; preds = %115, %108
  %124 = call i32 (i8*, ...) @printf(i8* getelementptr inbounds ([2 x i8], [2 x i8]* @.str.3, i64 0, i64 0))
  br label %125

125:                                              ; preds = %123, %121
  br label %126

126:                                              ; preds = %125, %106
  br label %127

127:                                              ; preds = %126
  %128 = load i32, i32* %3, align 4
  %129 = add nsw i32 %128, 1
  store i32 %129, i32* %3, align 4
  br label %82

130:                                              ; preds = %92, %82
  %131 = call i32 (i8*, ...) @printf(i8* getelementptr inbounds ([2 x i8], [2 x i8]* @.str.4, i64 0, i64 0))
  br label %6

132:                                              ; preds = %6
  ret i32 0
}

declare dso_local i32 @gets(...) #1

; Function Attrs: argmemonly nounwind willreturn
declare void @llvm.memset.p0i8.i64(i8* nocapture writeonly, i8, i64, i1 immarg) #2

declare dso_local i32 @printf(i8*, ...) #1


!llvm.module.flags = !{!0}
!llvm.ident = !{!1}

!0 = !{i32 1, !"wchar_size", i32 4}
!1 = !{!"clang version 10.0.0-4ubuntu1 "}
